; Function Attrs: nounwind uwtable
define internal range(i32 -1, 1) i32 @H5P__fcrt_btree_rank_dec(ptr noundef captures(none) %0, ptr noundef captures(none) %1) #0 {
  %3 = load ptr, ptr %0, align 8
  %4 = getelementptr inbounds nuw i8, ptr %3, i64 1
  store ptr %4, ptr %0, align 8
  %5 = load i8, ptr %3, align 1
  %.not = icmp eq i8 %5, 4
  br i1 %.not, label %.preheader, label %6

6:                                                ; preds = %2
  %7 = load i64, ptr @H5E_PLIST_g, align 8
  %8 = load i64, ptr @H5E_BADVALUE_g, align 8
  %9 = tail call i32 (ptr, ptr, i32, i64, i64, ptr, ...) @H5E_printf_stack(ptr noundef nonnull @.str.1, ptr noundef nonnull @__func__.H5P__fcrt_btree_rank_dec, i32 noundef 717, i64 noundef %7, i64 noundef %8, ptr noundef nonnull @.str.67) #6
  br label %.loopexit

.preheader:                                       ; preds = %2, %.preheader
  %10 = phi ptr [ %37, %.preheader ], [ %4, %2 ]
  %11 = phi i1 [ false, %.preheader ], [ true, %2 ]
  %indvars.iv = phi i64 [ 1, %.preheader ], [ 0, %2 ]
  %12 = load i8, ptr %10, align 1
  %13 = zext i8 %12 to i32
  %14 = getelementptr inbounds nuw i32, ptr %1, i64 %indvars.iv
  store i32 %13, ptr %14, align 4
  %15 = load ptr, ptr %0, align 8
  %16 = getelementptr inbounds nuw i8, ptr %15, i64 1
  store ptr %16, ptr %0, align 8
  %17 = load i8, ptr %16, align 1
  %18 = zext i8 %17 to i32
  %19 = shl nuw nsw i32 %18, 8
  %20 = load i32, ptr %14, align 4
  %21 = or i32 %19, %20
  store i32 %21, ptr %14, align 4
  %22 = load ptr, ptr %0, align 8
  %23 = getelementptr inbounds nuw i8, ptr %22, i64 1
  store ptr %23, ptr %0, align 8
  %24 = load i8, ptr %23, align 1
  %25 = zext i8 %24 to i32
  %26 = shl nuw nsw i32 %25, 16
  %27 = load i32, ptr %14, align 4
  %28 = or i32 %26, %27
  store i32 %28, ptr %14, align 4
  %29 = load ptr, ptr %0, align 8
  %30 = getelementptr inbounds nuw i8, ptr %29, i64 1
  store ptr %30, ptr %0, align 8
  %31 = load i8, ptr %30, align 1
  %32 = zext i8 %31 to i32
  %33 = shl nuw i32 %32, 24
  %34 = load i32, ptr %14, align 4
  %35 = or i32 %33, %34
  store i32 %35, ptr %14, align 4
  %36 = load ptr, ptr %0, align 8
  %37 = getelementptr inbounds nuw i8, ptr %36, i64 1
  store ptr %37, ptr %0, align 8
  br i1 %11, label %.preheader, label %.loopexit

.loopexit:                                        ; preds = %.preheader, %6
  %.0 = phi i32 [ -1, %6 ], [ 0, %.preheader ]
  ret i32 %.0
}